target datalayout = "e-m:e-p270:32:32-p271:32:32-p272:64:64-i64:64-i128:128-f80:128-n8:16:32:64-S128"
target triple = "x86_64-pc-linux-gnu"

%struct.AVBSFContext = type { ptr, ptr, ptr, ptr, ptr, %struct.AVRational, %struct.AVRational }
%struct.AVRational = type { i32, i32 }
%struct.SetTSContext = type { ptr, ptr, ptr, ptr, ptr, %struct.AVRational, i64, [21 x double], ptr, ptr, ptr, ptr, ptr, ptr, ptr }

; Function Attrs: nounwind uwtable
define internal void @setts_close(ptr noundef %0) #0 {
  %2 = alloca ptr, align 8
  %3 = alloca ptr, align 8
  store ptr %0, ptr %2, align 8, !tbaa !4
  call void @llvm.lifetime.start.p0(i64 8, ptr %3) #6
  %4 = load ptr, ptr %2, align 8, !tbaa !4
  %5 = getelementptr inbounds nuw %struct.AVBSFContext, ptr %4, i32 0, i32 2
  %6 = load ptr, ptr %5, align 8, !tbaa !9
  store ptr %6, ptr %3, align 8, !tbaa !16
  %7 = load ptr, ptr %3, align 8, !tbaa !16
  %8 = getelementptr inbounds nuw %struct.SetTSContext, ptr %7, i32 0, i32 12
  call void @av_packet_free(ptr noundef %8)
  %9 = load ptr, ptr %3, align 8, !tbaa !16
  %10 = getelementptr inbounds nuw %struct.SetTSContext, ptr %9, i32 0, i32 13
  call void @av_packet_free(ptr noundef %10)
  %11 = load ptr, ptr %3, align 8, !tbaa !16
  %12 = getelementptr inbounds nuw %struct.SetTSContext, ptr %11, i32 0, i32 14
  call void @av_packet_free(ptr noundef %12)
  %13 = load ptr, ptr %3, align 8, !tbaa !16
  %14 = getelementptr inbounds nuw %struct.SetTSContext, ptr %13, i32 0, i32 8
  %15 = load ptr, ptr %14, align 8, !tbaa !52
  call void @av_expr_free(ptr noundef %15)
  %16 = load ptr, ptr %3, align 8, !tbaa !16
  %17 = getelementptr inbounds nuw %struct.SetTSContext, ptr %16, i32 0, i32 8
  store ptr null, ptr %17, align 8, !tbaa !52
  %18 = load ptr, ptr %3, align 8, !tbaa !16
  %19 = getelementptr inbounds nuw %struct.SetTSContext, ptr %18, i32 0, i32 9
  %20 = load ptr, ptr %19, align 8, !tbaa !55
  call void @av_expr_free(ptr noundef %20)
  %21 = load ptr, ptr %3, align 8, !tbaa !16
  %22 = getelementptr inbounds nuw %struct.SetTSContext, ptr %21, i32 0, i32 9
  store ptr null, ptr %22, align 8, !tbaa !55
  %23 = load ptr, ptr %3, align 8, !tbaa !16
  %24 = getelementptr inbounds nuw %struct.SetTSContext, ptr %23, i32 0, i32 10
  %25 = load ptr, ptr %24, align 8, !tbaa !56
  call void @av_expr_free(ptr noundef %25)
  %26 = load ptr, ptr %3, align 8, !tbaa !16
  %27 = getelementptr inbounds nuw %struct.SetTSContext, ptr %26, i32 0, i32 10
  store ptr null, ptr %27, align 8, !tbaa !56
  %28 = load ptr, ptr %3, align 8, !tbaa !16
  %29 = getelementptr inbounds nuw %struct.SetTSContext, ptr %28, i32 0, i32 11
  %30 = load ptr, ptr %29, align 8, !tbaa !54
  call void @av_expr_free(ptr noundef %30)
  %31 = load ptr, ptr %3, align 8, !tbaa !16
  %32 = getelementptr inbounds nuw %struct.SetTSContext, ptr %31, i32 0, i32 11
  store ptr null, ptr %32, align 8, !tbaa !54
  call void @llvm.lifetime.end.p0(i64 8, ptr %3) #6
  ret void
}