; Function Attrs: nounwind uwtable
define internal void @setts_close(ptr noundef readonly captures(none) %0) #0 {
  %2 = getelementptr inbounds nuw i8, ptr %0, i64 16
  %3 = load ptr, ptr %2, align 8, !tbaa !4
  %4 = getelementptr inbounds nuw i8, ptr %3, i64 256
  tail call void @av_packet_free(ptr noundef nonnull %4) #3
  %5 = getelementptr inbounds nuw i8, ptr %3, i64 264
  tail call void @av_packet_free(ptr noundef nonnull %5) #3
  %6 = getelementptr inbounds nuw i8, ptr %3, i64 272
  tail call void @av_packet_free(ptr noundef nonnull %6) #3
  %7 = getelementptr inbounds nuw i8, ptr %3, i64 224
  %8 = load ptr, ptr %7, align 8, !tbaa !45
  tail call void @av_expr_free(ptr noundef %8) #3
  store ptr null, ptr %7, align 8, !tbaa !45
  %9 = getelementptr inbounds nuw i8, ptr %3, i64 232
  %10 = load ptr, ptr %9, align 8, !tbaa !47
  tail call void @av_expr_free(ptr noundef %10) #3
  store ptr null, ptr %9, align 8, !tbaa !47
  %11 = getelementptr inbounds nuw i8, ptr %3, i64 240
  %12 = load ptr, ptr %11, align 8, !tbaa !48
  tail call void @av_expr_free(ptr noundef %12) #3
  store ptr null, ptr %11, align 8, !tbaa !48
  %13 = getelementptr inbounds nuw i8, ptr %3, i64 248
  %14 = load ptr, ptr %13, align 8, !tbaa !46
  tail call void @av_expr_free(ptr noundef %14) #3
  store ptr null, ptr %13, align 8, !tbaa !46
  ret void
}